target datalayout = "e-m:e-p270:32:32-p271:32:32-p272:64:64-i64:64-i128:128-f80:128-n8:16:32:64-S128"
target triple = "x86_64-pc-linux-gnu"

%"class.rocksdb::Slice" = type { ptr, i64 }

; Function Attrs: mustprogress nounwind uwtable
define linkonce_odr noundef signext i8 @_ZNK7rocksdb5SliceixEm(ptr noundef nonnull align 8 dereferenceable(16) %0, i64 noundef %1) #3 comdat align 2 {
  %3 = alloca ptr, align 8
  %4 = alloca i64, align 8
  store ptr %0, ptr %3, align 8, !tbaa !13
  store i64 %1, ptr %4, align 8, !tbaa !4
  %5 = load ptr, ptr %3, align 8
  %6 = getelementptr inbounds nuw %"class.rocksdb::Slice", ptr %5, i32 0, i32 0
  %7 = load ptr, ptr %6, align 8, !tbaa !15
  %8 = load i64, ptr %4, align 8, !tbaa !4
  %9 = getelementptr inbounds nuw i8, ptr %7, i64 %8
  %10 = load i8, ptr %9, align 1, !tbaa !86
  ret i8 %10
}

; Function Attrs: inlinehint mustprogress nounwind uwtable
define linkonce_odr noundef i64 @_ZNK7rocksdb5Slice17difference_offsetERKS0_(ptr noundef nonnull align 8 dereferenceable(16) %0, ptr noundef nonnull align 8 dereferenceable(16) %1) #1 comdat align 2 {
  %3 = alloca ptr, align 8
  %4 = alloca ptr, align 8
  %5 = alloca i64, align 8
  %6 = alloca i64, align 8
  store ptr %0, ptr %3, align 8, !tbaa !13
  store ptr %1, ptr %4, align 8, !tbaa !13
  %7 = load ptr, ptr %3, align 8
  call void @llvm.lifetime.start.p0(i64 8, ptr %5) #5
  store i64 0, ptr %5, align 8, !tbaa !4
  call void @llvm.lifetime.start.p0(i64 8, ptr %6) #5
  %8 = getelementptr inbounds nuw %"class.rocksdb::Slice", ptr %7, i32 0, i32 1
  %9 = load i64, ptr %8, align 8, !tbaa !17
  %10 = load ptr, ptr %4, align 8, !tbaa !13
  %11 = getelementptr inbounds nuw %"class.rocksdb::Slice", ptr %10, i32 0, i32 1
  %12 = load i64, ptr %11, align 8, !tbaa !17
  %13 = icmp ult i64 %9, %12
  br i1 %13, label %14, label %17

14:                                               ; preds = %2
  %15 = getelementptr inbounds nuw %"class.rocksdb::Slice", ptr %7, i32 0, i32 1
  %16 = load i64, ptr %15, align 8, !tbaa !17
  br label %21

17:                                               ; preds = %2
  %18 = load ptr, ptr %4, align 8, !tbaa !13
  %19 = getelementptr inbounds nuw %"class.rocksdb::Slice", ptr %18, i32 0, i32 1
  %20 = load i64, ptr %19, align 8, !tbaa !17
  br label %21

21:                                               ; preds = %17, %14
  %22 = phi i64 [ %16, %14 ], [ %20, %17 ]
  store i64 %22, ptr %6, align 8, !tbaa !4
  br label %23

23:                                               ; preds = %44, %21
  %24 = load i64, ptr %5, align 8, !tbaa !4
  %25 = load i64, ptr %6, align 8, !tbaa !4
  %26 = icmp ult i64 %24, %25
  br i1 %26, label %27, label %47

27:                                               ; preds = %23
  %28 = getelementptr inbounds nuw %"class.rocksdb::Slice", ptr %7, i32 0, i32 0
  %29 = load ptr, ptr %28, align 8, !tbaa !15
  %30 = load i64, ptr %5, align 8, !tbaa !4
  %31 = getelementptr inbounds nuw i8, ptr %29, i64 %30
  %32 = load i8, ptr %31, align 1, !tbaa !86
  %33 = sext i8 %32 to i32
  %34 = load ptr, ptr %4, align 8, !tbaa !13
  %35 = getelementptr inbounds nuw %"class.rocksdb::Slice", ptr %34, i32 0, i32 0
  %36 = load ptr, ptr %35, align 8, !tbaa !15
  %37 = load i64, ptr %5, align 8, !tbaa !4
  %38 = getelementptr inbounds nuw i8, ptr %36, i64 %37
  %39 = load i8, ptr %38, align 1, !tbaa !86
  %40 = sext i8 %39 to i32
  %41 = icmp ne i32 %33, %40
  br i1 %41, label %42, label %43

42:                                               ; preds = %27
  br label %47

43:                                               ; preds = %27
  br label %44

44:                                               ; preds = %43
  %45 = load i64, ptr %5, align 8, !tbaa !4
  %46 = add i64 %45, 1
  store i64 %46, ptr %5, align 8, !tbaa !4
  br label %23, !llvm.loop !141

47:                                               ; preds = %42, %23
  %48 = load i64, ptr %5, align 8, !tbaa !4
  call void @llvm.lifetime.end.p0(i64 8, ptr %6) #5
  call void @llvm.lifetime.end.p0(i64 8, ptr %5) #5
  ret i64 %48
}

; Function Attrs: mustprogress nounwind uwtable
define linkonce_odr noundef i64 @_ZNK7rocksdb5Slice4sizeEv(ptr noundef nonnull align 8 dereferenceable(16) %0) #3 comdat align 2 {
  %2 = alloca ptr, align 8
  store ptr %0, ptr %2, align 8, !tbaa !13
  %3 = load ptr, ptr %2, align 8
  %4 = getelementptr inbounds nuw %"class.rocksdb::Slice", ptr %3, i32 0, i32 1
  %5 = load i64, ptr %4, align 8, !tbaa !17
  ret i64 %5
}

; Function Attrs: mustprogress uwtable
define internal noundef zeroext i1 @_ZNK7rocksdb12_GLOBAL__N_122BytewiseComparatorImpl30IsSameLengthImmediateSuccessorERKNS_5SliceES4_(ptr noundef nonnull align 8 dereferenceable(48) %0, ptr noundef nonnull align 8 dereferenceable(16) %1, ptr noundef nonnull align 8 dereferenceable(16) %2) unnamed_addr #4 align 2 {
  %4 = alloca i1, align 1
  %5 = alloca ptr, align 8
  %6 = alloca ptr, align 8
  %7 = alloca ptr, align 8
  %8 = alloca i64, align 8
  %9 = alloca i32, align 4
  %10 = alloca i8, align 1
  %11 = alloca i8, align 1
  %12 = alloca i64, align 8
  store ptr %0, ptr %5, align 8, !tbaa !19
  store ptr %1, ptr %6, align 8, !tbaa !13
  store ptr %2, ptr %7, align 8, !tbaa !13
  %13 = load ptr, ptr %6, align 8, !tbaa !13
  %14 = call noundef i64 @_ZNK7rocksdb5Slice4sizeEv(ptr noundef nonnull align 8 dereferenceable(16) %13)
  %15 = load ptr, ptr %7, align 8, !tbaa !13
  %16 = call noundef i64 @_ZNK7rocksdb5Slice4sizeEv(ptr noundef nonnull align 8 dereferenceable(16) %15)
  %17 = icmp ne i64 %14, %16
  br i1 %17, label %22, label %18

18:                                               ; preds = %3
  %19 = load ptr, ptr %6, align 8, !tbaa !13
  %20 = call noundef i64 @_ZNK7rocksdb5Slice4sizeEv(ptr noundef nonnull align 8 dereferenceable(16) %19)
  %21 = icmp eq i64 %20, 0
  br i1 %21, label %22, label %23

22:                                               ; preds = %18, %3
  store i1 false, ptr %4, align 1
  br label %83

23:                                               ; preds = %18
  call void @llvm.lifetime.start.p0(i64 8, ptr %8) #5
  %24 = load ptr, ptr %6, align 8, !tbaa !13
  %25 = load ptr, ptr %7, align 8, !tbaa !13
  %26 = call noundef i64 @_ZNK7rocksdb5Slice17difference_offsetERKS0_(ptr noundef nonnull align 8 dereferenceable(16) %24, ptr noundef nonnull align 8 dereferenceable(16) %25)
  store i64 %26, ptr %8, align 8, !tbaa !4
  %27 = load i64, ptr %8, align 8, !tbaa !4
  %28 = load ptr, ptr %6, align 8, !tbaa !13
  %29 = call noundef i64 @_ZNK7rocksdb5Slice4sizeEv(ptr noundef nonnull align 8 dereferenceable(16) %28)
  %30 = icmp uge i64 %27, %29
  br i1 %30, label %31, label %32

31:                                               ; preds = %23
  store i1 false, ptr %4, align 1
  store i32 1, ptr %9, align 4
  br label %82

32:                                               ; preds = %23
  call void @llvm.lifetime.start.p0(i64 1, ptr %10) #5
  %33 = load ptr, ptr %6, align 8, !tbaa !13
  %34 = load i64, ptr %8, align 8, !tbaa !4
  %35 = call noundef signext i8 @_ZNK7rocksdb5SliceixEm(ptr noundef nonnull align 8 dereferenceable(16) %33, i64 noundef %34)
  store i8 %35, ptr %10, align 1, !tbaa !86
  call void @llvm.lifetime.start.p0(i64 1, ptr %11) #5
  %36 = load ptr, ptr %7, align 8, !tbaa !13
  %37 = load i64, ptr %8, align 8, !tbaa !4
  %38 = call noundef signext i8 @_ZNK7rocksdb5SliceixEm(ptr noundef nonnull align 8 dereferenceable(16) %36, i64 noundef %37)
  store i8 %38, ptr %11, align 1, !tbaa !86
  %39 = load i8, ptr %10, align 1, !tbaa !86
  %40 = zext i8 %39 to i32
  %41 = icmp ne i32 %40, 255
  br i1 %41, label %42, label %80

42:                                               ; preds = %32
  %43 = load i8, ptr %10, align 1, !tbaa !86
  %44 = zext i8 %43 to i32
  %45 = add nsw i32 %44, 1
  %46 = load i8, ptr %11, align 1, !tbaa !86
  %47 = zext i8 %46 to i32
  %48 = icmp eq i32 %45, %47
  br i1 %48, label %49, label %80

49:                                               ; preds = %42
  call void @llvm.lifetime.start.p0(i64 8, ptr %12) #5
  %50 = load i64, ptr %8, align 8, !tbaa !4
  %51 = add i64 %50, 1
  store i64 %51, ptr %12, align 8, !tbaa !4
  br label %52

52:                                               ; preds = %74, %49
  %53 = load i64, ptr %12, align 8, !tbaa !4
  %54 = load ptr, ptr %6, align 8, !tbaa !13
  %55 = call noundef i64 @_ZNK7rocksdb5Slice4sizeEv(ptr noundef nonnull align 8 dereferenceable(16) %54)
  %56 = icmp ult i64 %53, %55
  br i1 %56, label %58, label %57

57:                                               ; preds = %52
  store i32 2, ptr %9, align 4
  br label %77

58:                                               ; preds = %52
  %59 = load ptr, ptr %6, align 8, !tbaa !13
  %60 = load i64, ptr %12, align 8, !tbaa !4
  %61 = call noundef signext i8 @_ZNK7rocksdb5SliceixEm(ptr noundef nonnull align 8 dereferenceable(16) %59, i64 noundef %60)
  store i8 %61, ptr %10, align 1, !tbaa !86
  %62 = load ptr, ptr %7, align 8, !tbaa !13
  %63 = load i64, ptr %12, align 8, !tbaa !4
  %64 = call noundef signext i8 @_ZNK7rocksdb5SliceixEm(ptr noundef nonnull align 8 dereferenceable(16) %62, i64 noundef %63)
  store i8 %64, ptr %11, align 1, !tbaa !86
  %65 = load i8, ptr %10, align 1, !tbaa !86
  %66 = zext i8 %65 to i32
  %67 = icmp ne i32 %66, 255
  br i1 %67, label %72, label %68

68:                                               ; preds = %58
  %69 = load i8, ptr %11, align 1, !tbaa !86
  %70 = zext i8 %69 to i32
  %71 = icmp ne i32 %70, 0
  br i1 %71, label %72, label %73

72:                                               ; preds = %68, %58
  store i1 false, ptr %4, align 1
  store i32 1, ptr %9, align 4
  br label %77

73:                                               ; preds = %68
  br label %74

74:                                               ; preds = %73
  %75 = load i64, ptr %12, align 8, !tbaa !4
  %76 = add i64 %75, 1
  store i64 %76, ptr %12, align 8, !tbaa !4
  br label %52, !llvm.loop !108

77:                                               ; preds = %72, %57
  call void @llvm.lifetime.end.p0(i64 8, ptr %12) #5
  %78 = load i32, ptr %9, align 4
  switch i32 %78, label %81 [
    i32 2, label %79
  ]

79:                                               ; preds = %77
  store i1 true, ptr %4, align 1
  store i32 1, ptr %9, align 4
  br label %81

80:                                               ; preds = %42, %32
  store i1 false, ptr %4, align 1
  store i32 1, ptr %9, align 4
  br label %81

81:                                               ; preds = %80, %79, %77
  call void @llvm.lifetime.end.p0(i64 1, ptr %11) #5
  call void @llvm.lifetime.end.p0(i64 1, ptr %10) #5
  br label %82

82:                                               ; preds = %81, %31
  call void @llvm.lifetime.end.p0(i64 8, ptr %8) #5
  br label %83

83:                                               ; preds = %82, %22
  %84 = load i1, ptr %4, align 1
  ret i1 %84
}