; Function Attrs: mustprogress nofree norecurse nosync nounwind willreturn memory(read, inaccessiblemem: none) uwtable
define internal noundef zeroext i1 @_ZNK7rocksdb12_GLOBAL__N_122BytewiseComparatorImpl30IsSameLengthImmediateSuccessorERKNS_5SliceES4_(ptr nonnull readnone align 8 captures(none) %0, ptr noundef nonnull readonly align 8 captures(none) dereferenceable(16) %1, ptr noundef nonnull readonly align 8 captures(none) dereferenceable(16) %2) unnamed_addr #11 align 2 {
  %4 = getelementptr inbounds nuw i8, ptr %1, i64 8
  %5 = load i64, ptr %4, align 8, !tbaa !29
  %6 = getelementptr inbounds nuw i8, ptr %2, i64 8
  %7 = load i64, ptr %6, align 8, !tbaa !29
  %.not = icmp ne i64 %5, %7
  %8 = icmp eq i64 %5, 0
  %or.cond34 = or i1 %8, %.not
  br i1 %or.cond34, label %.loopexit, label %.lr.ph.i

.lr.ph.i:                                         ; preds = %3
  %9 = load ptr, ptr %1, align 8, !tbaa !32
  %10 = load ptr, ptr %2, align 8, !tbaa !32
  br label %11

11:                                               ; preds = %16, %.lr.ph.i
  %.011.i = phi i64 [ 0, %.lr.ph.i ], [ %17, %16 ]
  %12 = getelementptr inbounds nuw i8, ptr %9, i64 %.011.i
  %13 = load i8, ptr %12, align 1, !tbaa !45
  %14 = getelementptr inbounds nuw i8, ptr %10, i64 %.011.i
  %15 = load i8, ptr %14, align 1, !tbaa !45
  %.not.i = icmp eq i8 %13, %15
  br i1 %.not.i, label %16, label %_ZNK7rocksdb5Slice17difference_offsetERKS0_.exit

16:                                               ; preds = %11
  %17 = add nuw i64 %.011.i, 1
  %exitcond.not.i = icmp eq i64 %17, %5
  br i1 %exitcond.not.i, label %.loopexit, label %11, !llvm.loop !120

_ZNK7rocksdb5Slice17difference_offsetERKS0_.exit: ; preds = %11
  %.not31 = icmp ult i64 %.011.i, %5
  br i1 %.not31, label %18, label %.loopexit

18:                                               ; preds = %_ZNK7rocksdb5Slice17difference_offsetERKS0_.exit
  %19 = getelementptr inbounds nuw i8, ptr %9, i64 %.011.i
  %20 = load i8, ptr %19, align 1, !tbaa !45
  %21 = getelementptr inbounds nuw i8, ptr %10, i64 %.011.i
  %22 = load i8, ptr %21, align 1, !tbaa !45
  %.not32 = icmp ne i8 %20, -1
  %23 = zext i8 %20 to i32
  %24 = add nuw nsw i32 %23, 1
  %25 = zext i8 %22 to i32
  %26 = icmp eq i32 %24, %25
  %or.cond38 = select i1 %.not32, i1 %26, i1 false
  br i1 %or.cond38, label %.preheader.preheader, label %.loopexit

.preheader.preheader:                             ; preds = %18
  %27 = add i64 %5, -1
  br label %.preheader

.preheader:                                       ; preds = %.preheader.preheader, %28
  %.0.in = phi i64 [ %.0, %28 ], [ %.011.i, %.preheader.preheader ]
  %exitcond.not = icmp eq i64 %.0.in, %27
  br i1 %exitcond.not, label %.loopexit, label %28

28:                                               ; preds = %.preheader
  %.0 = add nuw i64 %.0.in, 1
  %29 = getelementptr inbounds nuw i8, ptr %9, i64 %.0
  %30 = load i8, ptr %29, align 1, !tbaa !45
  %31 = getelementptr inbounds nuw i8, ptr %10, i64 %.0
  %32 = load i8, ptr %31, align 1, !tbaa !45
  %33 = icmp ne i8 %30, -1
  %34 = icmp ne i8 %32, 0
  %or.cond = or i1 %33, %34
  br i1 %or.cond, label %.loopexit, label %.preheader, !llvm.loop !121

.loopexit:                                        ; preds = %16, %.preheader, %28, %_ZNK7rocksdb5Slice17difference_offsetERKS0_.exit, %18, %3
  %.028 = phi i1 [ false, %3 ], [ false, %_ZNK7rocksdb5Slice17difference_offsetERKS0_.exit ], [ false, %18 ], [ %exitcond.not, %28 ], [ %exitcond.not, %.preheader ], [ false, %16 ]
  ret i1 %.028
}